Certificate:
    Data:
        Version: 3 (0x2)
        Serial Number: 8 (0x8)
    Signature Algorithm: ecdsa-with-SHA256
        Issuer: CN=newtroy.micahrl.com
        Validity
            Not Before: May 12 22:13:07 2019 GMT
            Not After : May  9 22:13:07 2029 GMT
        Subject: CN=gw1
        Subject Public Key Info:
            Public Key Algorithm: id-ecPublicKey
                Public-Key: (384 bit)
                pub: 
                    04:62:d1:5e:03:60:3f:43:9b:0d:47:10:04:22:f2:
                    35:92:95:8c:b8:70:0e:ba:3b:c5:65:51:e5:a2:52:
                    8a:03:f6:66:ea:ca:56:84:71:76:97:c1:dd:be:1e:
                    50:cd:a9:6a:8c:9c:ac:9d:52:e2:31:eb:db:60:7f:
                    3a:56:25:b5:36:fb:3a:4f:20:fc:e4:36:cb:80:83:
                    57:95:21:6a:f5:f3:d4:de:48:a9:f5:4d:b5:94:44:
                    c8:95:41:93:a6:63:43
                ASN1 OID: secp384r1
                NIST CURVE: P-384
        X509v3 extensions:
            X509v3 Basic Constraints: 
                CA:FALSE
            X509v3 Subject Key Identifier: 
                EE:94:59:F5:03:96:7F:E1:54:C0:8F:DC:C6:DE:AA:9B:E2:75:89:B8
            X509v3 Authority Key Identifier: 
                keyid:13:1B:92:5D:A5:B4:6D:88:73:CB:6C:36:47:7C:B1:3D:BE:8B:6C:66
                DirName:/CN=newtroy.micahrl.com
                serial:F3:6A:E9:5B:BF:DA:E7:67

            X509v3 Extended Key Usage: 
                TLS Web Server Authentication, TLS Web Client Authentication, 1.3.6.1.5.5.7.3.17
            X509v3 Key Usage: 
                Digital Signature, Key Encipherment
            X509v3 Subject Alternative Name: 
                DNS:gw1
    Signature Algorithm: ecdsa-with-SHA256
         30:65:02:31:00:97:49:8c:6c:99:68:ee:83:65:21:10:a3:60:
         34:e2:91:23:68:e6:09:b3:b2:56:bb:5b:3f:3e:61:04:e5:43:
         b4:6b:54:c1:ed:1f:72:e6:1e:95:fc:02:79:c9:cc:15:e0:02:
         30:41:68:b4:ad:d5:31:d8:5a:e2:c5:33:21:ff:2d:bd:f4:3e:
         c7:73:d6:9e:1b:d0:6f:ff:e4:dd:85:d1:e0:ad:76:a0:09:ff:
         95:2b:88:29:f4:4a:ee:ee:50:ed:bf:28:9b
-----BEGIN CERTIFICATE-----
MIICHDCCAaKgAwIBAgIBCDAKBggqhkjOPQQDAjAeMRwwGgYDVQQDDBNuZXd0cm95
Lm1pY2FocmwuY29tMB4XDTE5MDUxMjIyMTMwN1oXDTI5MDUwOTIyMTMwN1owDjEM
MAoGA1UEAwwDZ3cxMHYwEAYHKoZIzj0CAQYFK4EEACIDYgAEYtFeA2A/Q5sNRxAE
IvI1kpWMuHAOujvFZVHlolKKA/Zm6spWhHF2l8Hdvh5QzalqjJysnVLiMevbYH86
ViW1Nvs6TyD85DbLgINXlSFq9fPU3kip9U21lETIlUGTpmNDo4HDMIHAMAkGA1Ud
EwQCMAAwHQYDVR0OBBYEFO6UWfUDln/hVMCP3MbeqpvidYm4ME4GA1UdIwRHMEWA
FBMbkl2ltG2Ic8tsNkd8sT2+i2xmoSKkIDAeMRwwGgYDVQQDDBNuZXd0cm95Lm1p
Y2FocmwuY29tggkA82rpW7/a52cwJwYDVR0lBCAwHgYIKwYBBQUHAwEGCCsGAQUF
BwMCBggrBgEFBQcDETALBgNVHQ8EBAMCBaAwDgYDVR0RBAcwBYIDZ3cxMAoGCCqG
SM49BAMCA2gAMGUCMQCXSYxsmWjug2UhEKNgNOKRI2jmCbOyVrtbPz5hBOVDtGtU
we0fcuYelfwCecnMFeACMEFotK3VMdha4sUzIf8tvfQ+x3PWnhvQb//k3YXR4K12
oAn/lSuIKfRK7u5Q7b8omw==
-----END CERTIFICATE-----
